; Function Attrs: mustprogress nounwind uwtable
define dso_local noundef zeroext i1 @_ZN4llvm12MMRAMetadata7isTagMDEPKNS_8MetadataE(ptr noundef %0) local_unnamed_addr #0 align 2 {
  %2 = load i8, ptr %0, align 4
  %.not = icmp eq i8 %2, 5
  br i1 %.not, label %3, label %47

3:                                                ; preds = %1
  %4 = getelementptr inbounds i8, ptr %0, i64 -16
  %5 = load i64, ptr %4, align 8
  %6 = and i64 %5, 2
  %.not.i.i = icmp eq i64 %6, 0
  br i1 %.not.i.i, label %7, label %11

7:                                                ; preds = %3
  %8 = trunc i64 %5 to i32
  %9 = lshr i32 %8, 6
  %10 = and i32 %9, 15
  br label %_ZNK4llvm6MDNode14getNumOperandsEv.exit

11:                                               ; preds = %3
  %12 = getelementptr inbounds i8, ptr %0, i64 -32
  %13 = tail call noundef i64 @_ZNK4llvm15SmallVectorBaseIjE4sizeEv(ptr noundef nonnull align 8 dereferenceable(16) %12) #12
  %14 = trunc i64 %13 to i32
  br label %_ZNK4llvm6MDNode14getNumOperandsEv.exit

_ZNK4llvm6MDNode14getNumOperandsEv.exit:          ; preds = %7, %11
  %.0.i.i = phi i32 [ %14, %11 ], [ %10, %7 ]
  %15 = icmp eq i32 %.0.i.i, 2
  br i1 %15, label %16, label %47

16:                                               ; preds = %_ZNK4llvm6MDNode14getNumOperandsEv.exit
  %17 = load i64, ptr %4, align 8
  %18 = and i64 %17, 2
  %.not.i.i7 = icmp eq i64 %18, 0
  br i1 %.not.i.i7, label %23, label %19

19:                                               ; preds = %16
  %20 = getelementptr inbounds i8, ptr %0, i64 -32
  %21 = load ptr, ptr %20, align 8
  %22 = tail call noundef i64 @_ZNK4llvm15SmallVectorBaseIjE4sizeEv(ptr noundef nonnull align 8 dereferenceable(16) %20) #12
  br label %_ZNK4llvm6MDNode10getOperandEj.exit

23:                                               ; preds = %16
  %24 = lshr i64 %17, 2
  %25 = and i64 %24, 15
  %26 = sub nsw i64 0, %25
  %27 = getelementptr inbounds %"class.llvm::MDOperand", ptr %4, i64 %26
  br label %_ZNK4llvm6MDNode10getOperandEj.exit

_ZNK4llvm6MDNode10getOperandEj.exit:              ; preds = %19, %23
  %.sroa.0.0.i.i = phi ptr [ %27, %23 ], [ %21, %19 ]
  %28 = load ptr, ptr %.sroa.0.0.i.i, align 8
  %29 = load i8, ptr %28, align 4
  %30 = icmp eq i8 %29, 0
  br i1 %30, label %31, label %47

31:                                               ; preds = %_ZNK4llvm6MDNode10getOperandEj.exit
  %32 = load i64, ptr %4, align 8
  %33 = and i64 %32, 2
  %.not.i.i8 = icmp eq i64 %33, 0
  br i1 %.not.i.i8, label %38, label %34

34:                                               ; preds = %31
  %35 = getelementptr inbounds i8, ptr %0, i64 -32
  %36 = load ptr, ptr %35, align 8
  %37 = tail call noundef i64 @_ZNK4llvm15SmallVectorBaseIjE4sizeEv(ptr noundef nonnull align 8 dereferenceable(16) %35) #12
  br label %_ZNK4llvm6MDNode10getOperandEj.exit10

38:                                               ; preds = %31
  %39 = lshr i64 %32, 2
  %40 = and i64 %39, 15
  %41 = sub nsw i64 0, %40
  %42 = getelementptr inbounds %"class.llvm::MDOperand", ptr %4, i64 %41
  br label %_ZNK4llvm6MDNode10getOperandEj.exit10

_ZNK4llvm6MDNode10getOperandEj.exit10:            ; preds = %34, %38
  %.sroa.0.0.i.i9 = phi ptr [ %42, %38 ], [ %36, %34 ]
  %43 = getelementptr inbounds i8, ptr %.sroa.0.0.i.i9, i64 8
  %44 = load ptr, ptr %43, align 8
  %45 = load i8, ptr %44, align 4
  %46 = icmp eq i8 %45, 0
  br label %47

47:                                               ; preds = %1, %_ZNK4llvm6MDNode14getNumOperandsEv.exit, %_ZNK4llvm6MDNode10getOperandEj.exit, %_ZNK4llvm6MDNode10getOperandEj.exit10
  %.0 = phi i1 [ false, %_ZNK4llvm6MDNode10getOperandEj.exit ], [ false, %_ZNK4llvm6MDNode14getNumOperandsEv.exit ], [ %46, %_ZNK4llvm6MDNode10getOperandEj.exit10 ], [ false, %1 ]
  ret i1 %.0
}